target datalayout = "e-m:e-p270:32:32-p271:32:32-p272:64:64-i64:64-i128:128-f80:128-n8:16:32:64-S128"
target triple = "x86_64-unknown-linux-gnu"

%"class.cvc5::internal::TypeNode" = type { ptr }

; Function Attrs: mustprogress nounwind uwtable
define linkonce_odr hidden noundef zeroext i1 @_ZNK4cvc58internal8TypeNodeeqERKS1_(ptr noundef nonnull align 8 dereferenceable(8) %this, ptr noundef nonnull align 8 dereferenceable(8) %typeNode) #7 comdat align 2 {
entry:
  %this.addr = alloca ptr, align 8
  %typeNode.addr = alloca ptr, align 8
  store ptr %this, ptr %this.addr, align 8
  store ptr %typeNode, ptr %typeNode.addr, align 8
  %this1 = load ptr, ptr %this.addr, align 8
  %d_nv = getelementptr inbounds %"class.cvc5::internal::TypeNode", ptr %this1, i32 0, i32 0
  %0 = load ptr, ptr %d_nv, align 8
  %1 = load ptr, ptr %typeNode.addr, align 8
  %d_nv2 = getelementptr inbounds %"class.cvc5::internal::TypeNode", ptr %1, i32 0, i32 0
  %2 = load ptr, ptr %d_nv2, align 8
  %cmp = icmp eq ptr %0, %2
  ret i1 %cmp
}

; Function Attrs: mustprogress uwtable
define linkonce_odr hidden noundef zeroext i1 @_ZNK4cvc58internal8TypeNodeneERKS1_(ptr noundef nonnull align 8 dereferenceable(8) %this, ptr noundef nonnull align 8 dereferenceable(8) %typeNode) #4 comdat align 2 {
entry:
  %this.addr = alloca ptr, align 8
  %typeNode.addr = alloca ptr, align 8
  store ptr %this, ptr %this.addr, align 8
  store ptr %typeNode, ptr %typeNode.addr, align 8
  %this1 = load ptr, ptr %this.addr, align 8
  %0 = load ptr, ptr %typeNode.addr, align 8
  %call = call noundef zeroext i1 @_ZNK4cvc58internal8TypeNodeeqERKS1_(ptr noundef nonnull align 8 dereferenceable(8) %this1, ptr noundef nonnull align 8 dereferenceable(8) %0)
  %lnot = xor i1 %call, true
  ret i1 %lnot
}

; Function Attrs: mustprogress uwtable
define hidden void @_ZNK4cvc58internal6theory11quantifiers11TermDbSygus10getArgTypeERKNS0_16DTypeConstructorEj(ptr noalias sret(%"class.cvc5::internal::TypeNode") align 8 %agg.result, ptr noundef nonnull align 8 dereferenceable(1040) %this, ptr noundef nonnull align 8 dereferenceable(264) %c, i32 noundef %i) #4 align 2 {
entry:
  %result.ptr = alloca ptr, align 8
  %this.addr = alloca ptr, align 8
  %c.addr = alloca ptr, align 8
  %i.addr = alloca i32, align 4
  store ptr %agg.result, ptr %result.ptr, align 8
  store ptr %this, ptr %this.addr, align 8
  store ptr %c, ptr %c.addr, align 8
  store i32 %i, ptr %i.addr, align 4
  %0 = load ptr, ptr %c.addr, align 8
  %1 = load i32, ptr %i.addr, align 4
  %conv = zext i32 %1 to i64
  call void @_ZNK4cvc58internal16DTypeConstructor10getArgTypeEm(ptr sret(%"class.cvc5::internal::TypeNode") align 8 %agg.result, ptr noundef nonnull align 8 dereferenceable(264) %0, i64 noundef %conv)
  ret void
}

; Function Attrs: mustprogress uwtable
define hidden noundef zeroext i1 @_ZN4cvc58internal6theory11quantifiers11TermDbSygus11isTypeMatchERKNS0_16DTypeConstructorES6_(ptr noundef nonnull align 8 dereferenceable(1040) %this, ptr noundef nonnull align 8 dereferenceable(264) %c1, ptr noundef nonnull align 8 dereferenceable(264) %c2) #4 align 2 personality ptr @__gxx_personality_v0 {
entry:
  %retval = alloca i1, align 1
  %this.addr = alloca ptr, align 8
  %c1.addr = alloca ptr, align 8
  %c2.addr = alloca ptr, align 8
  %i = alloca i32, align 4
  %ref.tmp = alloca %"class.cvc5::internal::TypeNode", align 8
  %ref.tmp5 = alloca %"class.cvc5::internal::TypeNode", align 8
  %exn.slot = alloca ptr, align 8
  %ehselector.slot = alloca i32, align 4
  store ptr %this, ptr %this.addr, align 8
  store ptr %c1, ptr %c1.addr, align 8
  store ptr %c2, ptr %c2.addr, align 8
  %this1 = load ptr, ptr %this.addr, align 8
  %0 = load ptr, ptr %c1.addr, align 8
  %call = call noundef i64 @_ZNK4cvc58internal16DTypeConstructor10getNumArgsEv(ptr noundef nonnull align 8 dereferenceable(264) %0)
  %1 = load ptr, ptr %c2.addr, align 8
  %call2 = call noundef i64 @_ZNK4cvc58internal16DTypeConstructor10getNumArgsEv(ptr noundef nonnull align 8 dereferenceable(264) %1)
  %cmp = icmp ne i64 %call, %call2
  br i1 %cmp, label %if.then, label %if.else

if.then:                                          ; preds = %entry
  store i1 false, ptr %retval, align 1
  br label %return

if.else:                                          ; preds = %entry
  store i32 0, ptr %i, align 4
  br label %for.cond

for.cond:                                         ; preds = %for.inc, %if.else
  %2 = load i32, ptr %i, align 4
  %conv = zext i32 %2 to i64
  %3 = load ptr, ptr %c1.addr, align 8
  %call3 = call noundef i64 @_ZNK4cvc58internal16DTypeConstructor10getNumArgsEv(ptr noundef nonnull align 8 dereferenceable(264) %3)
  %cmp4 = icmp ult i64 %conv, %call3
  br i1 %cmp4, label %for.body, label %for.end

for.body:                                         ; preds = %for.cond
  %4 = load ptr, ptr %c1.addr, align 8
  %5 = load i32, ptr %i, align 4
  call void @_ZNK4cvc58internal6theory11quantifiers11TermDbSygus10getArgTypeERKNS0_16DTypeConstructorEj(ptr sret(%"class.cvc5::internal::TypeNode") align 8 %ref.tmp, ptr noundef nonnull align 8 dereferenceable(1040) %this1, ptr noundef nonnull align 8 dereferenceable(264) %4, i32 noundef %5)
  %6 = load ptr, ptr %c2.addr, align 8
  %7 = load i32, ptr %i, align 4
  invoke void @_ZNK4cvc58internal6theory11quantifiers11TermDbSygus10getArgTypeERKNS0_16DTypeConstructorEj(ptr sret(%"class.cvc5::internal::TypeNode") align 8 %ref.tmp5, ptr noundef nonnull align 8 dereferenceable(1040) %this1, ptr noundef nonnull align 8 dereferenceable(264) %6, i32 noundef %7)
          to label %invoke.cont unwind label %lpad

invoke.cont:                                      ; preds = %for.body
  %call8 = invoke noundef zeroext i1 @_ZNK4cvc58internal8TypeNodeneERKS1_(ptr noundef nonnull align 8 dereferenceable(8) %ref.tmp, ptr noundef nonnull align 8 dereferenceable(8) %ref.tmp5)
          to label %invoke.cont7 unwind label %lpad6

invoke.cont7:                                     ; preds = %invoke.cont
  call void @_ZN4cvc58internal8TypeNodeD2Ev(ptr noundef nonnull align 8 dereferenceable(8) %ref.tmp5) #3
  call void @_ZN4cvc58internal8TypeNodeD2Ev(ptr noundef nonnull align 8 dereferenceable(8) %ref.tmp) #3
  br i1 %call8, label %if.then9, label %if.end

if.then9:                                         ; preds = %invoke.cont7
  store i1 false, ptr %retval, align 1
  br label %return

lpad:                                             ; preds = %for.body
  %8 = landingpad { ptr, i32 }
          cleanup
  %9 = extractvalue { ptr, i32 } %8, 0
  store ptr %9, ptr %exn.slot, align 8
  %10 = extractvalue { ptr, i32 } %8, 1
  store i32 %10, ptr %ehselector.slot, align 4
  br label %ehcleanup

lpad6:                                            ; preds = %invoke.cont
  %11 = landingpad { ptr, i32 }
          cleanup
  %12 = extractvalue { ptr, i32 } %11, 0
  store ptr %12, ptr %exn.slot, align 8
  %13 = extractvalue { ptr, i32 } %11, 1
  store i32 %13, ptr %ehselector.slot, align 4
  call void @_ZN4cvc58internal8TypeNodeD2Ev(ptr noundef nonnull align 8 dereferenceable(8) %ref.tmp5) #3
  br label %ehcleanup

ehcleanup:                                        ; preds = %lpad6, %lpad
  call void @_ZN4cvc58internal8TypeNodeD2Ev(ptr noundef nonnull align 8 dereferenceable(8) %ref.tmp) #3
  br label %eh.resume

if.end:                                           ; preds = %invoke.cont7
  br label %for.inc

for.inc:                                          ; preds = %if.end
  %14 = load i32, ptr %i, align 4
  %inc = add i32 %14, 1
  store i32 %inc, ptr %i, align 4
  br label %for.cond, !llvm.loop !46

for.end:                                          ; preds = %for.cond
  store i1 true, ptr %retval, align 1
  br label %return

return:                                           ; preds = %for.end, %if.then9, %if.then
  %15 = load i1, ptr %retval, align 1
  ret i1 %15

eh.resume:                                        ; preds = %ehcleanup
  %exn = load ptr, ptr %exn.slot, align 8
  %sel = load i32, ptr %ehselector.slot, align 4
  %lpad.val = insertvalue { ptr, i32 } poison, ptr %exn, 0
  %lpad.val10 = insertvalue { ptr, i32 } %lpad.val, i32 %sel, 1
  resume { ptr, i32 } %lpad.val10
}