; Function Attrs: mustprogress uwtable
define hidden noundef zeroext i1 @_ZN4cvc58internal6theory11quantifiers11TermDbSygus11isTypeMatchERKNS0_16DTypeConstructorES6_(ptr nocapture noundef nonnull readnone align 8 dereferenceable(1040) %this, ptr noundef nonnull align 8 dereferenceable(264) %c1, ptr noundef nonnull align 8 dereferenceable(264) %c2) local_unnamed_addr #3 align 2 personality ptr @__gxx_personality_v0 {
entry:
  %ref.tmp = alloca %"class.cvc5::internal::TypeNode", align 8
  %ref.tmp5 = alloca %"class.cvc5::internal::TypeNode", align 8
  %call = tail call noundef i64 @_ZNK4cvc58internal16DTypeConstructor10getNumArgsEv(ptr noundef nonnull align 8 dereferenceable(264) %c1)
  %call2 = tail call noundef i64 @_ZNK4cvc58internal16DTypeConstructor10getNumArgsEv(ptr noundef nonnull align 8 dereferenceable(264) %c2)
  %cmp.not = icmp eq i64 %call, %call2
  br i1 %cmp.not, label %for.cond.preheader, label %return

for.cond.preheader:                               ; preds = %entry
  %call320 = tail call noundef i64 @_ZNK4cvc58internal16DTypeConstructor10getNumArgsEv(ptr noundef nonnull align 8 dereferenceable(264) %c1)
  %cmp421.not = icmp eq i64 %call320, 0
  br i1 %cmp421.not, label %return, label %for.body

for.cond:                                         ; preds = %_ZN4cvc58internal8TypeNodeD2Ev.exit19
  %inc = add i32 %i.022, 1
  %conv = zext i32 %inc to i64
  %call3 = call noundef i64 @_ZNK4cvc58internal16DTypeConstructor10getNumArgsEv(ptr noundef nonnull align 8 dereferenceable(264) %c1)
  %cmp4 = icmp ugt i64 %call3, %conv
  br i1 %cmp4, label %for.body, label %return, !llvm.loop !109

for.body:                                         ; preds = %for.cond.preheader, %for.cond
  %conv23 = phi i64 [ %conv, %for.cond ], [ 0, %for.cond.preheader ]
  %i.022 = phi i32 [ %inc, %for.cond ], [ 0, %for.cond.preheader ]
  call void @_ZNK4cvc58internal16DTypeConstructor10getArgTypeEm(ptr nonnull sret(%"class.cvc5::internal::TypeNode") align 8 %ref.tmp, ptr noundef nonnull align 8 dereferenceable(264) %c1, i64 noundef %conv23)
  invoke void @_ZNK4cvc58internal16DTypeConstructor10getArgTypeEm(ptr nonnull sret(%"class.cvc5::internal::TypeNode") align 8 %ref.tmp5, ptr noundef nonnull align 8 dereferenceable(264) %c2, i64 noundef %conv23)
          to label %invoke.cont7 unwind label %lpad

invoke.cont7:                                     ; preds = %for.body
  %0 = load ptr, ptr %ref.tmp, align 8
  %1 = load ptr, ptr %ref.tmp5, align 8
  %cmp.i.i.not = icmp eq ptr %0, %1
  %bf.load.i.i = load i64, ptr %1, align 8
  %2 = and i64 %bf.load.i.i, 1152920405095219200
  %cmp.not.i.i = icmp eq i64 %2, 1152920405095219200
  br i1 %cmp.not.i.i, label %_ZN4cvc58internal8TypeNodeD2Ev.exit, label %if.then.i.i

if.then.i.i:                                      ; preds = %invoke.cont7
  %bf.value.i.i = add i64 %bf.load.i.i, 1152920405095219200
  %bf.shl.i.i = and i64 %bf.value.i.i, 1152920405095219200
  %bf.clear7.i.i = and i64 %bf.load.i.i, -1152920405095219201
  %bf.set.i.i = or disjoint i64 %bf.shl.i.i, %bf.clear7.i.i
  store i64 %bf.set.i.i, ptr %1, align 8
  %cmp12.i.i = icmp eq i64 %bf.shl.i.i, 0
  br i1 %cmp12.i.i, label %if.then13.i.i, label %_ZN4cvc58internal8TypeNodeD2Ev.exit

if.then13.i.i:                                    ; preds = %if.then.i.i
  invoke void @_ZN4cvc58internal4expr9NodeValue15markForDeletionEv(ptr noundef nonnull align 8 dereferenceable(16) %1)
          to label %_ZN4cvc58internal8TypeNodeD2Ev.exit unwind label %terminate.lpad.i

terminate.lpad.i:                                 ; preds = %if.then13.i.i
  %3 = landingpad { ptr, i32 }
          catch ptr null
  %4 = extractvalue { ptr, i32 } %3, 0
  call void @__clang_call_terminate(ptr %4) #23
  unreachable

_ZN4cvc58internal8TypeNodeD2Ev.exit:              ; preds = %invoke.cont7, %if.then.i.i, %if.then13.i.i
  %5 = load ptr, ptr %ref.tmp, align 8
  %bf.load.i.i9 = load i64, ptr %5, align 8
  %6 = and i64 %bf.load.i.i9, 1152920405095219200
  %cmp.not.i.i10 = icmp eq i64 %6, 1152920405095219200
  br i1 %cmp.not.i.i10, label %_ZN4cvc58internal8TypeNodeD2Ev.exit19, label %if.then.i.i11

if.then.i.i11:                                    ; preds = %_ZN4cvc58internal8TypeNodeD2Ev.exit
  %bf.value.i.i12 = add i64 %bf.load.i.i9, 1152920405095219200
  %bf.shl.i.i13 = and i64 %bf.value.i.i12, 1152920405095219200
  %bf.clear7.i.i14 = and i64 %bf.load.i.i9, -1152920405095219201
  %bf.set.i.i15 = or disjoint i64 %bf.shl.i.i13, %bf.clear7.i.i14
  store i64 %bf.set.i.i15, ptr %5, align 8
  %cmp12.i.i16 = icmp eq i64 %bf.shl.i.i13, 0
  br i1 %cmp12.i.i16, label %if.then13.i.i17, label %_ZN4cvc58internal8TypeNodeD2Ev.exit19

if.then13.i.i17:                                  ; preds = %if.then.i.i11
  invoke void @_ZN4cvc58internal4expr9NodeValue15markForDeletionEv(ptr noundef nonnull align 8 dereferenceable(16) %5)
          to label %_ZN4cvc58internal8TypeNodeD2Ev.exit19 unwind label %terminate.lpad.i18

terminate.lpad.i18:                               ; preds = %if.then13.i.i17
  %7 = landingpad { ptr, i32 }
          catch ptr null
  %8 = extractvalue { ptr, i32 } %7, 0
  call void @__clang_call_terminate(ptr %8) #23
  unreachable

_ZN4cvc58internal8TypeNodeD2Ev.exit19:            ; preds = %_ZN4cvc58internal8TypeNodeD2Ev.exit, %if.then.i.i11, %if.then13.i.i17
  br i1 %cmp.i.i.not, label %for.cond, label %return

lpad:                                             ; preds = %for.body
  %9 = landingpad { ptr, i32 }
          cleanup
  call void @_ZN4cvc58internal8TypeNodeD2Ev(ptr noundef nonnull align 8 dereferenceable(8) %ref.tmp) #22
  resume { ptr, i32 } %9

return:                                           ; preds = %_ZN4cvc58internal8TypeNodeD2Ev.exit19, %for.cond, %for.cond.preheader, %entry
  %retval.0 = phi i1 [ false, %entry ], [ true, %for.cond.preheader ], [ %cmp.i.i.not, %for.cond ], [ %cmp.i.i.not, %_ZN4cvc58internal8TypeNodeD2Ev.exit19 ]
  ret i1 %retval.0
}